; Function Attrs: null_pointer_is_valid sspstrong uwtable
define internal zeroext i1 @dissect_spdy_heur(ptr noundef %0, ptr noundef %1, ptr noundef %2, ptr readnone captures(none) %3) #0 {
  %5 = tail call zeroext i8 @tvb_get_uint8(ptr noundef %0, i32 noundef 0)
  %6 = and i8 %5, 127
  %or.cond.not = icmp eq i8 %6, 0
  br i1 %or.cond.not, label %7, label %11

7:                                                ; preds = %4
  %8 = getelementptr inbounds nuw i8, ptr %1, i64 8
  %9 = load ptr, ptr %8, align 8
  tail call void @col_clear(ptr noundef %9, i32 noundef 25)
  tail call void @tcp_dissect_pdus(ptr noundef %0, ptr noundef %1, ptr noundef %2, i1 noundef zeroext true, i32 noundef 8, ptr noundef nonnull @get_spdy_message_len, ptr noundef nonnull @dissect_spdy_frame, ptr noundef null)
  %10 = tail call i32 @tvb_captured_length(ptr noundef %0)
  %.not = icmp ne i32 %10, 0
  br label %11

11:                                               ; preds = %7, %4
  %.0 = phi i1 [ false, %4 ], [ %.not, %7 ]
  ret i1 %.0
}